target datalayout = "e-m:e-p270:32:32-p271:32:32-p272:64:64-i64:64-i128:128-f80:128-n8:16:32:64-S128"
target triple = "x86_64-pc-linux-gnu"

%struct.mbedtls_mpi = type { i32, i64, ptr }

; Function Attrs: mustprogress uwtable
define internal void @_ZL19mbedtls_mpi_zeroizePmm(ptr noundef %0, i64 noundef %1) #1 {
  %3 = alloca ptr, align 8
  %4 = alloca i64, align 8
  store ptr %0, ptr %3, align 8, !tbaa !15
  store i64 %1, ptr %4, align 8, !tbaa !16
  %5 = load ptr, ptr %3, align 8, !tbaa !15
  %6 = load i64, ptr %4, align 8, !tbaa !16
  %7 = mul i64 8, %6
  call void @mbedtls_platform_zeroize(ptr noundef %5, i64 noundef %7)
  ret void
}

; Function Attrs: mustprogress uwtable
define hidden i32 @mbedtls_mpi_grow(ptr noundef %0, i64 noundef %1) #1 {
  %3 = alloca i32, align 4
  %4 = alloca ptr, align 8
  %5 = alloca i64, align 8
  %6 = alloca ptr, align 8
  %7 = alloca i32, align 4
  store ptr %0, ptr %4, align 8, !tbaa !3
  store i64 %1, ptr %5, align 8, !tbaa !16
  call void @llvm.lifetime.start.p0(i64 8, ptr %6) #10
  br label %8

8:                                                ; preds = %2
  br label %9

9:                                                ; preds = %8
  br label %10

10:                                               ; preds = %9
  %11 = load i64, ptr %5, align 8, !tbaa !16
  %12 = icmp ugt i64 %11, 10000
  br i1 %12, label %13, label %14

13:                                               ; preds = %10
  store i32 -16, ptr %3, align 4
  store i32 1, ptr %7, align 4
  br label %56

14:                                               ; preds = %10
  %15 = load ptr, ptr %4, align 8, !tbaa !3
  %16 = getelementptr inbounds nuw %struct.mbedtls_mpi, ptr %15, i32 0, i32 1
  %17 = load i64, ptr %16, align 8, !tbaa !13
  %18 = load i64, ptr %5, align 8, !tbaa !16
  %19 = icmp ult i64 %17, %18
  br i1 %19, label %20, label %55

20:                                               ; preds = %14
  %21 = load i64, ptr %5, align 8, !tbaa !16
  %22 = call noalias ptr @calloc(i64 noundef %21, i64 noundef 8) #11
  store ptr %22, ptr %6, align 8, !tbaa !15
  %23 = icmp eq ptr %22, null
  br i1 %23, label %24, label %25

24:                                               ; preds = %20
  store i32 -16, ptr %3, align 4
  store i32 1, ptr %7, align 4
  br label %56

25:                                               ; preds = %20
  %26 = load ptr, ptr %4, align 8, !tbaa !3
  %27 = getelementptr inbounds nuw %struct.mbedtls_mpi, ptr %26, i32 0, i32 2
  %28 = load ptr, ptr %27, align 8, !tbaa !14
  %29 = icmp ne ptr %28, null
  br i1 %29, label %30, label %48

30:                                               ; preds = %25
  %31 = load ptr, ptr %6, align 8, !tbaa !15
  %32 = load ptr, ptr %4, align 8, !tbaa !3
  %33 = getelementptr inbounds nuw %struct.mbedtls_mpi, ptr %32, i32 0, i32 2
  %34 = load ptr, ptr %33, align 8, !tbaa !14
  %35 = load ptr, ptr %4, align 8, !tbaa !3
  %36 = getelementptr inbounds nuw %struct.mbedtls_mpi, ptr %35, i32 0, i32 1
  %37 = load i64, ptr %36, align 8, !tbaa !13
  %38 = mul i64 %37, 8
  call void @llvm.memcpy.p0.p0.i64(ptr align 8 %31, ptr align 8 %34, i64 %38, i1 false)
  %39 = load ptr, ptr %4, align 8, !tbaa !3
  %40 = getelementptr inbounds nuw %struct.mbedtls_mpi, ptr %39, i32 0, i32 2
  %41 = load ptr, ptr %40, align 8, !tbaa !14
  %42 = load ptr, ptr %4, align 8, !tbaa !3
  %43 = getelementptr inbounds nuw %struct.mbedtls_mpi, ptr %42, i32 0, i32 1
  %44 = load i64, ptr %43, align 8, !tbaa !13
  call void @_ZL19mbedtls_mpi_zeroizePmm(ptr noundef %41, i64 noundef %44)
  %45 = load ptr, ptr %4, align 8, !tbaa !3
  %46 = getelementptr inbounds nuw %struct.mbedtls_mpi, ptr %45, i32 0, i32 2
  %47 = load ptr, ptr %46, align 8, !tbaa !14
  call void @free(ptr noundef %47) #10
  br label %48

48:                                               ; preds = %30, %25
  %49 = load i64, ptr %5, align 8, !tbaa !16
  %50 = load ptr, ptr %4, align 8, !tbaa !3
  %51 = getelementptr inbounds nuw %struct.mbedtls_mpi, ptr %50, i32 0, i32 1
  store i64 %49, ptr %51, align 8, !tbaa !13
  %52 = load ptr, ptr %6, align 8, !tbaa !15
  %53 = load ptr, ptr %4, align 8, !tbaa !3
  %54 = getelementptr inbounds nuw %struct.mbedtls_mpi, ptr %53, i32 0, i32 2
  store ptr %52, ptr %54, align 8, !tbaa !14
  br label %55

55:                                               ; preds = %48, %14
  store i32 0, ptr %3, align 4
  store i32 1, ptr %7, align 4
  br label %56

56:                                               ; preds = %55, %24, %13
  call void @llvm.lifetime.end.p0(i64 8, ptr %6) #10
  %57 = load i32, ptr %3, align 4
  ret i32 %57
}

; Function Attrs: mustprogress uwtable
define hidden i32 @mbedtls_mpi_shrink(ptr noundef %0, i64 noundef %1) #1 {
  %3 = alloca i32, align 4
  %4 = alloca ptr, align 8
  %5 = alloca i64, align 8
  %6 = alloca ptr, align 8
  %7 = alloca i64, align 8
  %8 = alloca i32, align 4
  store ptr %0, ptr %4, align 8, !tbaa !3
  store i64 %1, ptr %5, align 8, !tbaa !16
  call void @llvm.lifetime.start.p0(i64 8, ptr %6) #10
  call void @llvm.lifetime.start.p0(i64 8, ptr %7) #10
  br label %9

9:                                                ; preds = %2
  br label %10

10:                                               ; preds = %9
  br label %11

11:                                               ; preds = %10
  %12 = load i64, ptr %5, align 8, !tbaa !16
  %13 = icmp ugt i64 %12, 10000
  br i1 %13, label %14, label %15

14:                                               ; preds = %11
  store i32 -16, ptr %3, align 4
  store i32 1, ptr %8, align 4
  br label %87

15:                                               ; preds = %11
  %16 = load ptr, ptr %4, align 8, !tbaa !3
  %17 = getelementptr inbounds nuw %struct.mbedtls_mpi, ptr %16, i32 0, i32 1
  %18 = load i64, ptr %17, align 8, !tbaa !13
  %19 = load i64, ptr %5, align 8, !tbaa !16
  %20 = icmp ule i64 %18, %19
  br i1 %20, label %21, label %25

21:                                               ; preds = %15
  %22 = load ptr, ptr %4, align 8, !tbaa !3
  %23 = load i64, ptr %5, align 8, !tbaa !16
  %24 = call i32 @mbedtls_mpi_grow(ptr noundef %22, i64 noundef %23)
  store i32 %24, ptr %3, align 4
  store i32 1, ptr %8, align 4
  br label %87

25:                                               ; preds = %15
  %26 = load ptr, ptr %4, align 8, !tbaa !3
  %27 = getelementptr inbounds nuw %struct.mbedtls_mpi, ptr %26, i32 0, i32 1
  %28 = load i64, ptr %27, align 8, !tbaa !13
  %29 = sub i64 %28, 1
  store i64 %29, ptr %7, align 8, !tbaa !16
  br label %30

30:                                               ; preds = %43, %25
  %31 = load i64, ptr %7, align 8, !tbaa !16
  %32 = icmp ugt i64 %31, 0
  br i1 %32, label %33, label %46

33:                                               ; preds = %30
  %34 = load ptr, ptr %4, align 8, !tbaa !3
  %35 = getelementptr inbounds nuw %struct.mbedtls_mpi, ptr %34, i32 0, i32 2
  %36 = load ptr, ptr %35, align 8, !tbaa !14
  %37 = load i64, ptr %7, align 8, !tbaa !16
  %38 = getelementptr inbounds nuw i64, ptr %36, i64 %37
  %39 = load i64, ptr %38, align 8, !tbaa !16
  %40 = icmp ne i64 %39, 0
  br i1 %40, label %41, label %42

41:                                               ; preds = %33
  br label %46

42:                                               ; preds = %33
  br label %43

43:                                               ; preds = %42
  %44 = load i64, ptr %7, align 8, !tbaa !16
  %45 = add i64 %44, -1
  store i64 %45, ptr %7, align 8, !tbaa !16
  br label %30, !llvm.loop !17

46:                                               ; preds = %41, %30
  %47 = load i64, ptr %7, align 8, !tbaa !16
  %48 = add i64 %47, 1
  store i64 %48, ptr %7, align 8, !tbaa !16
  %49 = load i64, ptr %7, align 8, !tbaa !16
  %50 = load i64, ptr %5, align 8, !tbaa !16
  %51 = icmp ult i64 %49, %50
  br i1 %51, label %52, label %54

52:                                               ; preds = %46
  %53 = load i64, ptr %5, align 8, !tbaa !16
  store i64 %53, ptr %7, align 8, !tbaa !16
  br label %54

54:                                               ; preds = %52, %46
  %55 = load i64, ptr %7, align 8, !tbaa !16
  %56 = call noalias ptr @calloc(i64 noundef %55, i64 noundef 8) #11
  store ptr %56, ptr %6, align 8, !tbaa !15
  %57 = icmp eq ptr %56, null
  br i1 %57, label %58, label %59

58:                                               ; preds = %54
  store i32 -16, ptr %3, align 4
  store i32 1, ptr %8, align 4
  br label %87

59:                                               ; preds = %54
  %60 = load ptr, ptr %4, align 8, !tbaa !3
  %61 = getelementptr inbounds nuw %struct.mbedtls_mpi, ptr %60, i32 0, i32 2
  %62 = load ptr, ptr %61, align 8, !tbaa !14
  %63 = icmp ne ptr %62, null
  br i1 %63, label %64, label %80

64:                                               ; preds = %59
  %65 = load ptr, ptr %6, align 8, !tbaa !15
  %66 = load ptr, ptr %4, align 8, !tbaa !3
  %67 = getelementptr inbounds nuw %struct.mbedtls_mpi, ptr %66, i32 0, i32 2
  %68 = load ptr, ptr %67, align 8, !tbaa !14
  %69 = load i64, ptr %7, align 8, !tbaa !16
  %70 = mul i64 %69, 8
  call void @llvm.memcpy.p0.p0.i64(ptr align 8 %65, ptr align 8 %68, i64 %70, i1 false)
  %71 = load ptr, ptr %4, align 8, !tbaa !3
  %72 = getelementptr inbounds nuw %struct.mbedtls_mpi, ptr %71, i32 0, i32 2
  %73 = load ptr, ptr %72, align 8, !tbaa !14
  %74 = load ptr, ptr %4, align 8, !tbaa !3
  %75 = getelementptr inbounds nuw %struct.mbedtls_mpi, ptr %74, i32 0, i32 1
  %76 = load i64, ptr %75, align 8, !tbaa !13
  call void @_ZL19mbedtls_mpi_zeroizePmm(ptr noundef %73, i64 noundef %76)
  %77 = load ptr, ptr %4, align 8, !tbaa !3
  %78 = getelementptr inbounds nuw %struct.mbedtls_mpi, ptr %77, i32 0, i32 2
  %79 = load ptr, ptr %78, align 8, !tbaa !14
  call void @free(ptr noundef %79) #10
  br label %80

80:                                               ; preds = %64, %59
  %81 = load i64, ptr %7, align 8, !tbaa !16
  %82 = load ptr, ptr %4, align 8, !tbaa !3
  %83 = getelementptr inbounds nuw %struct.mbedtls_mpi, ptr %82, i32 0, i32 1
  store i64 %81, ptr %83, align 8, !tbaa !13
  %84 = load ptr, ptr %6, align 8, !tbaa !15
  %85 = load ptr, ptr %4, align 8, !tbaa !3
  %86 = getelementptr inbounds nuw %struct.mbedtls_mpi, ptr %85, i32 0, i32 2
  store ptr %84, ptr %86, align 8, !tbaa !14
  store i32 0, ptr %3, align 4
  store i32 1, ptr %8, align 4
  br label %87

87:                                               ; preds = %80, %58, %21, %14
  call void @llvm.lifetime.end.p0(i64 8, ptr %7) #10
  call void @llvm.lifetime.end.p0(i64 8, ptr %6) #10
  %88 = load i32, ptr %3, align 4
  ret i32 %88
}