; Function Attrs: mustprogress uwtable
define hidden range(i32 -16, 1) i32 @mbedtls_mpi_shrink(ptr noundef captures(none) %0, i64 noundef %1) local_unnamed_addr #1 {
  %3 = icmp ugt i64 %1, 10000
  br i1 %3, label %mbedtls_mpi_grow.exit, label %4

4:                                                ; preds = %2
  %5 = getelementptr inbounds nuw i8, ptr %0, i64 8
  %6 = load i64, ptr %5, align 8, !tbaa !12
  %.not = icmp ugt i64 %6, %1
  br i1 %.not, label %.preheader, label %8

.preheader:                                       ; preds = %4
  %7 = getelementptr inbounds nuw i8, ptr %0, i64 16
  br label %20

8:                                                ; preds = %4
  %9 = icmp samesign ult i64 %6, %1
  br i1 %9, label %10, label %mbedtls_mpi_grow.exit

10:                                               ; preds = %8
  %11 = tail call noalias ptr @calloc(i64 noundef %1, i64 noundef 8) #16
  %12 = icmp eq ptr %11, null
  br i1 %12, label %mbedtls_mpi_grow.exit, label %13

13:                                               ; preds = %10
  %14 = getelementptr inbounds nuw i8, ptr %0, i64 16
  %15 = load ptr, ptr %14, align 8, !tbaa !11
  %.not.i = icmp eq ptr %15, null
  br i1 %.not.i, label %19, label %16

16:                                               ; preds = %13
  %17 = shl nuw nsw i64 %6, 3
  tail call void @llvm.memcpy.p0.p0.i64(ptr nonnull align 8 %11, ptr nonnull align 8 %15, i64 %17, i1 false)
  tail call void @mbedtls_platform_zeroize(ptr noundef nonnull %15, i64 noundef %17)
  %18 = load ptr, ptr %14, align 8, !tbaa !11
  tail call void @free(ptr noundef %18) #15
  br label %19

19:                                               ; preds = %16, %13
  store i64 %1, ptr %5, align 8, !tbaa !12
  store ptr %11, ptr %14, align 8, !tbaa !11
  br label %mbedtls_mpi_grow.exit

20:                                               ; preds = %.preheader, %21
  %.0.in = phi i64 [ %.0, %21 ], [ %6, %.preheader ]
  %.0 = add i64 %.0.in, -1
  %.not32 = icmp eq i64 %.0, 0
  br i1 %.not32, label %25, label %21

21:                                               ; preds = %20
  %22 = load ptr, ptr %7, align 8, !tbaa !11
  %23 = getelementptr inbounds nuw i64, ptr %22, i64 %.0
  %24 = load i64, ptr %23, align 8, !tbaa !13
  %.not33 = icmp eq i64 %24, 0
  br i1 %.not33, label %20, label %25, !llvm.loop !14

25:                                               ; preds = %21, %20
  %spec.select = tail call i64 @llvm.umax.i64(i64 %.0.in, i64 %1)
  %26 = tail call noalias ptr @calloc(i64 noundef %spec.select, i64 noundef 8) #16
  %27 = icmp eq ptr %26, null
  br i1 %27, label %mbedtls_mpi_grow.exit, label %28

28:                                               ; preds = %25
  %29 = load ptr, ptr %7, align 8, !tbaa !11
  %.not34 = icmp eq ptr %29, null
  br i1 %.not34, label %34, label %30

30:                                               ; preds = %28
  %31 = shl i64 %spec.select, 3
  tail call void @llvm.memcpy.p0.p0.i64(ptr nonnull align 8 %26, ptr nonnull align 8 %29, i64 %31, i1 false)
  %32 = shl i64 %6, 3
  tail call void @mbedtls_platform_zeroize(ptr noundef nonnull %29, i64 noundef %32)
  %33 = load ptr, ptr %7, align 8, !tbaa !11
  tail call void @free(ptr noundef %33) #15
  br label %34

34:                                               ; preds = %30, %28
  store i64 %spec.select, ptr %5, align 8, !tbaa !12
  store ptr %26, ptr %7, align 8, !tbaa !11
  br label %mbedtls_mpi_grow.exit

mbedtls_mpi_grow.exit:                            ; preds = %19, %10, %8, %25, %2, %34
  %.026 = phi i32 [ 0, %34 ], [ -16, %2 ], [ -16, %25 ], [ -16, %10 ], [ 0, %19 ], [ 0, %8 ]
  ret i32 %.026
}